; Function Attrs: nounwind uwtable
define dso_local void @ResetRelRewrite(i32 noundef %0) local_unnamed_addr #0 {
  %2 = tail call ptr @table_open(i32 noundef 1259, i32 noundef 3) #15
  %3 = zext i32 %0 to i64
  %4 = tail call ptr @SearchSysCacheCopy(i32 noundef 57, i64 noundef %3, i64 noundef 0, i64 noundef 0, i64 noundef 0) #15
  %.not = icmp eq ptr %4, null
  br i1 %.not, label %5, label %8

5:                                                ; preds = %1
  %6 = tail call zeroext i1 @errstart_cold(i32 noundef 21, ptr noundef null) #16
  tail call void @llvm.assume(i1 %6)
  %7 = tail call i32 (ptr, ...) @errmsg_internal(ptr noundef nonnull @.str.23, i32 noundef %0) #15
  tail call void @errfinish(ptr noundef nonnull @.str.2, i32 noundef 4339, ptr noundef nonnull @__func__.ResetRelRewrite) #15
  unreachable

8:                                                ; preds = %1
  %9 = getelementptr i8, ptr %4, i64 16
  %.val = load ptr, ptr %9, align 8
  %10 = getelementptr inbounds nuw i8, ptr %.val, i64 22
  %11 = load i8, ptr %10, align 2
  %12 = zext i8 %11 to i64
  %13 = getelementptr inbounds nuw i8, ptr %.val, i64 %12
  %14 = getelementptr inbounds nuw i8, ptr %13, i64 128
  store i32 0, ptr %14, align 4
  %15 = getelementptr inbounds nuw i8, ptr %4, i64 4
  tail call void @CatalogTupleUpdate(ptr noundef %2, ptr noundef nonnull %15, ptr noundef nonnull %4) #15
  tail call void @heap_freetuple(ptr noundef nonnull %4) #15
  tail call void @table_close(ptr noundef %2, i32 noundef 3) #15
  ret void
}